target datalayout = "e-m:e-p270:32:32-p271:32:32-p272:64:64-i64:64-i128:128-f80:128-n8:16:32:64-S128"
target triple = "x86_64-pc-linux-gnu"

%"class.cv::Size_" = type { i32, i32 }

; Function Attrs: mustprogress nounwind uwtable
define void @_ZN2cv7optflow10GPCDetails23getCoordinatesFromIndexEmNS_5Size_IiEERiS4_(i64 noundef %0, i64 %1, ptr noundef nonnull align 4 dereferenceable(4) %2, ptr noundef nonnull align 4 dereferenceable(4) %3) #5 align 2 {
  %5 = alloca %"class.cv::Size_", align 4
  %6 = alloca i64, align 8
  %7 = alloca ptr, align 8
  %8 = alloca ptr, align 8
  %9 = alloca i64, align 8
  store i64 %1, ptr %5, align 4
  store i64 %0, ptr %6, align 8, !tbaa !46
  store ptr %2, ptr %7, align 8, !tbaa !47
  store ptr %3, ptr %8, align 8, !tbaa !47
  call void @llvm.lifetime.start.p0(i64 8, ptr %9) #22
  %10 = getelementptr inbounds nuw %"class.cv::Size_", ptr %5, i32 0, i32 0
  %11 = load i32, ptr %10, align 4, !tbaa !39
  %12 = sub nsw i32 %11, 20
  %13 = sext i32 %12 to i64
  store i64 %13, ptr %9, align 8, !tbaa !46
  %14 = load i64, ptr %6, align 8, !tbaa !46
  %15 = load i64, ptr %9, align 8, !tbaa !46
  %16 = udiv i64 %14, %15
  %17 = trunc i64 %16 to i32
  %18 = load ptr, ptr %8, align 8, !tbaa !47
  store i32 %17, ptr %18, align 4, !tbaa !19
  %19 = load i64, ptr %6, align 8, !tbaa !46
  %20 = load ptr, ptr %8, align 8, !tbaa !47
  %21 = load i32, ptr %20, align 4, !tbaa !19
  %22 = sext i32 %21 to i64
  %23 = load i64, ptr %9, align 8, !tbaa !46
  %24 = mul i64 %22, %23
  %25 = sub i64 %19, %24
  %26 = add i64 %25, 10
  %27 = trunc i64 %26 to i32
  %28 = load ptr, ptr %7, align 8, !tbaa !47
  store i32 %27, ptr %28, align 4, !tbaa !19
  %29 = load ptr, ptr %8, align 8, !tbaa !47
  %30 = load i32, ptr %29, align 4, !tbaa !19
  %31 = add nsw i32 %30, 10
  store i32 %31, ptr %29, align 4, !tbaa !19
  call void @llvm.lifetime.end.p0(i64 8, ptr %9) #22
  ret void
}