; Function Attrs: mustprogress nofree norecurse nosync nounwind willreturn memory(argmem: readwrite) uwtable
define void @_ZN2cv7optflow10GPCDetails23getCoordinatesFromIndexEmNS_5Size_IiEERiS4_(i64 noundef %0, i64 %1, ptr noundef nonnull writeonly align 4 captures(none) dereferenceable(4) initializes((0, 4)) %2, ptr noundef nonnull align 4 captures(none) dereferenceable(4) initializes((0, 4)) %3) local_unnamed_addr #5 align 2 {
  %5 = shl i64 %1, 32
  %sext = add i64 %5, -85899345920
  %6 = ashr exact i64 %sext, 32
  %7 = udiv i64 %0, %6
  %8 = trunc i64 %7 to i32
  store i32 %8, ptr %3, align 4, !tbaa !23
  %9 = mul i64 %7, %6
  %.recomposed = urem i64 %0, %6
  %10 = trunc i64 %.recomposed to i32
  %11 = add i32 %10, 10
  store i32 %11, ptr %2, align 4, !tbaa !23
  %12 = load i32, ptr %3, align 4, !tbaa !23
  %13 = add nsw i32 %12, 10
  store i32 %13, ptr %3, align 4, !tbaa !23
  ret void
}